; Function Attrs: nounwind uwtable
define range(i32 -2, 1) i32 @inflateReset2(ptr noundef %0, i32 noundef %1) local_unnamed_addr #2 {
  %3 = icmp eq ptr %0, null
  br i1 %3, label %inflateReset.exit, label %4

4:                                                ; preds = %2
  %5 = getelementptr inbounds nuw i8, ptr %0, i64 56
  %6 = load ptr, ptr %5, align 8, !tbaa !3
  %7 = icmp eq ptr %6, null
  br i1 %7, label %inflateReset.exit, label %8

8:                                                ; preds = %4
  %9 = icmp slt i32 %1, 0
  br i1 %9, label %10, label %12

10:                                               ; preds = %8
  %11 = sub nsw i32 0, %1
  br label %select.unfold

12:                                               ; preds = %8
  %13 = lshr i32 %1, 4
  %14 = add nuw nsw i32 %13, 1
  %15 = icmp samesign ult i32 %1, 48
  %16 = and i32 %1, 15
  %spec.select = select i1 %15, i32 %16, i32 %1
  br label %select.unfold

select.unfold:                                    ; preds = %12, %10
  %.025 = phi i32 [ %11, %10 ], [ %spec.select, %12 ]
  %.024 = phi i32 [ 0, %10 ], [ %14, %12 ]
  switch i32 %.025, label %inflateReset.exit [
    i32 15, label %17
    i32 14, label %17
    i32 13, label %17
    i32 12, label %17
    i32 11, label %17
    i32 10, label %17
    i32 9, label %17
    i32 8, label %17
    i32 0, label %17
  ]

17:                                               ; preds = %select.unfold, %select.unfold, %select.unfold, %select.unfold, %select.unfold, %select.unfold, %select.unfold, %select.unfold, %select.unfold
  %18 = getelementptr inbounds nuw i8, ptr %6, i64 64
  %19 = load ptr, ptr %18, align 8, !tbaa !32
  %.not30 = icmp eq ptr %19, null
  br i1 %.not30, label %.thread, label %20

20:                                               ; preds = %17
  %21 = getelementptr inbounds nuw i8, ptr %6, i64 48
  %22 = load i32, ptr %21, align 8, !tbaa !33
  %.not31 = icmp eq i32 %22, %.025
  br i1 %.not31, label %.thread, label %25

.thread:                                          ; preds = %17, %20
  %23 = getelementptr inbounds nuw i8, ptr %6, i64 8
  store i32 %.024, ptr %23, align 8, !tbaa !34
  %24 = getelementptr inbounds nuw i8, ptr %6, i64 48
  store i32 %.025, ptr %24, align 8, !tbaa !33
  br label %33

25:                                               ; preds = %20
  %26 = getelementptr inbounds nuw i8, ptr %0, i64 72
  %27 = load ptr, ptr %26, align 8, !tbaa !35
  %28 = getelementptr inbounds nuw i8, ptr %0, i64 80
  %29 = load ptr, ptr %28, align 8, !tbaa !36
  tail call void %27(ptr noundef %29, ptr noundef nonnull %19) #10
  store ptr null, ptr %18, align 8, !tbaa !32
  %.pre = load ptr, ptr %5, align 8, !tbaa !3
  %30 = getelementptr inbounds nuw i8, ptr %6, i64 8
  store i32 %.024, ptr %30, align 8, !tbaa !34
  %31 = getelementptr inbounds nuw i8, ptr %6, i64 48
  store i32 %.025, ptr %31, align 8, !tbaa !33
  %32 = icmp eq ptr %.pre, null
  br i1 %32, label %inflateReset.exit, label %33

33:                                               ; preds = %.thread, %25
  %34 = phi ptr [ %6, %.thread ], [ %.pre, %25 ]
  %35 = getelementptr inbounds nuw i8, ptr %34, i64 32
  store i64 0, ptr %35, align 8, !tbaa !12
  %36 = getelementptr inbounds nuw i8, ptr %0, i64 40
  %37 = getelementptr inbounds nuw i8, ptr %0, i64 16
  store i64 0, ptr %37, align 8, !tbaa !15
  %38 = getelementptr inbounds nuw i8, ptr %0, i64 96
  tail call void @llvm.memset.p0.i64(ptr noundef nonnull align 8 dereferenceable(16) %36, i8 0, i64 16, i1 false)
  store i64 1, ptr %38, align 8, !tbaa !16
  store i32 0, ptr %34, align 8, !tbaa !17
  %39 = getelementptr inbounds nuw i8, ptr %34, i64 4
  store i32 0, ptr %39, align 4, !tbaa !18
  %40 = getelementptr inbounds nuw i8, ptr %34, i64 12
  store i32 0, ptr %40, align 4, !tbaa !19
  %41 = getelementptr inbounds nuw i8, ptr %34, i64 20
  store i32 32768, ptr %41, align 4, !tbaa !20
  %42 = getelementptr inbounds nuw i8, ptr %34, i64 40
  store ptr null, ptr %42, align 8, !tbaa !21
  %43 = getelementptr inbounds nuw i8, ptr %34, i64 52
  store i32 0, ptr %43, align 4, !tbaa !22
  %44 = getelementptr inbounds nuw i8, ptr %34, i64 56
  store i32 0, ptr %44, align 8, !tbaa !23
  %45 = getelementptr inbounds nuw i8, ptr %34, i64 60
  store i32 0, ptr %45, align 4, !tbaa !24
  %46 = getelementptr inbounds nuw i8, ptr %34, i64 72
  store i64 0, ptr %46, align 8, !tbaa !25
  %47 = getelementptr inbounds nuw i8, ptr %34, i64 80
  store i32 0, ptr %47, align 8, !tbaa !26
  %48 = getelementptr inbounds nuw i8, ptr %34, i64 1360
  %49 = getelementptr inbounds nuw i8, ptr %34, i64 136
  store ptr %48, ptr %49, align 8, !tbaa !27
  %50 = getelementptr inbounds nuw i8, ptr %34, i64 104
  store ptr %48, ptr %50, align 8, !tbaa !28
  %51 = getelementptr inbounds nuw i8, ptr %34, i64 96
  store ptr %48, ptr %51, align 8, !tbaa !29
  %52 = getelementptr inbounds nuw i8, ptr %34, i64 7136
  store i32 1, ptr %52, align 8, !tbaa !30
  %53 = getelementptr inbounds nuw i8, ptr %34, i64 7140
  store i32 -1, ptr %53, align 4, !tbaa !31
  br label %inflateReset.exit

inflateReset.exit:                                ; preds = %33, %25, %select.unfold, %2, %4
  %.0 = phi i32 [ -2, %4 ], [ -2, %2 ], [ -2, %select.unfold ], [ 0, %33 ], [ -2, %25 ]
  ret i32 %.0
}